; Function Attrs: nounwind uwtable
define i32 @exr_attr_set_m44f(ptr noundef %0, i32 noundef %1, ptr noundef %2, ptr noundef readonly %3) local_unnamed_addr #0 {
  %5 = alloca ptr, align 8
  call void @llvm.lifetime.start.p0(i64 8, ptr nonnull %5) #6
  store ptr null, ptr %5, align 8, !tbaa !30
  %.not = icmp eq ptr %0, null
  br i1 %.not, label %70, label %6

6:                                                ; preds = %4
  %7 = getelementptr inbounds nuw i8, ptr %0, i64 504
  %8 = tail call i32 @pthread_mutex_lock(ptr noundef nonnull %7) #6
  %9 = icmp slt i32 %1, 0
  br i1 %9, label %13, label %10

10:                                               ; preds = %6
  %11 = getelementptr inbounds nuw i8, ptr %0, i64 196
  %12 = load i32, ptr %11, align 4, !tbaa !22
  %.not53 = icmp slt i32 %1, %12
  br i1 %.not53, label %18, label %13

13:                                               ; preds = %10, %6
  %14 = tail call i32 @pthread_mutex_unlock(ptr noundef nonnull %7) #6
  %15 = getelementptr inbounds nuw i8, ptr %0, i64 72
  %16 = load ptr, ptr %15, align 8, !tbaa !23
  %17 = tail call i32 (ptr, i32, ptr, ...) %16(ptr noundef nonnull %0, i32 noundef 4, ptr noundef nonnull @.str, i32 noundef %1) #6
  br label %70

18:                                               ; preds = %10
  %19 = load i8, ptr %0, align 8, !tbaa !3
  switch i8 %19, label %30 [
    i8 0, label %20
    i8 3, label %25
  ]

20:                                               ; preds = %18
  %21 = tail call i32 @pthread_mutex_unlock(ptr noundef nonnull %7) #6
  %22 = getelementptr inbounds nuw i8, ptr %0, i64 56
  %23 = load ptr, ptr %22, align 8, !tbaa !27
  %24 = tail call i32 %23(ptr noundef nonnull %0, i32 noundef 8) #6
  br label %70

25:                                               ; preds = %18
  %26 = tail call i32 @pthread_mutex_unlock(ptr noundef nonnull %7) #6
  %27 = getelementptr inbounds nuw i8, ptr %0, i64 56
  %28 = load ptr, ptr %27, align 8, !tbaa !27
  %29 = tail call i32 %28(ptr noundef nonnull %0, i32 noundef 21) #6
  br label %70

30:                                               ; preds = %18
  %31 = getelementptr inbounds nuw i8, ptr %0, i64 472
  %32 = load ptr, ptr %31, align 8, !tbaa !24
  %33 = zext nneg i32 %1 to i64
  %34 = getelementptr inbounds nuw ptr, ptr %32, i64 %33
  %35 = load ptr, ptr %34, align 8, !tbaa !25
  %36 = getelementptr inbounds nuw i8, ptr %35, i64 8
  %37 = call i32 @exr_attr_list_find_by_name(ptr noundef nonnull %0, ptr noundef nonnull %36, ptr noundef %2, ptr noundef nonnull %5) #6
  switch i32 %37, label %54 [
    i32 15, label %38
    i32 0, label %42
  ]

38:                                               ; preds = %30
  %39 = load i8, ptr %0, align 8, !tbaa !3
  switch i8 %39, label %40 [
    i8 1, label %56
    i8 4, label %56
  ]

40:                                               ; preds = %38
  %41 = call i32 @pthread_mutex_unlock(ptr noundef nonnull %7) #6
  br label %70

42:                                               ; preds = %30
  %43 = load ptr, ptr %5, align 8, !tbaa !30
  %44 = getelementptr inbounds nuw i8, ptr %43, i64 20
  %45 = load i32, ptr %44, align 4, !tbaa !32
  %.not54 = icmp eq i32 %45, 15
  br i1 %.not54, label %.thread, label %46

46:                                               ; preds = %42
  %47 = call i32 @pthread_mutex_unlock(ptr noundef nonnull %7) #6
  %48 = getelementptr inbounds nuw i8, ptr %0, i64 72
  %49 = load ptr, ptr %48, align 8, !tbaa !23
  %50 = load ptr, ptr %5, align 8, !tbaa !30
  %51 = getelementptr inbounds nuw i8, ptr %50, i64 8
  %52 = load ptr, ptr %51, align 8, !tbaa !34
  %53 = call i32 (ptr, i32, ptr, ...) %49(ptr noundef nonnull %0, i32 noundef 16, ptr noundef nonnull @.str.68, ptr noundef %2, ptr noundef %52) #6
  br label %70

54:                                               ; preds = %30
  %55 = call i32 @pthread_mutex_unlock(ptr noundef nonnull %7) #6
  br label %70

56:                                               ; preds = %38, %38
  %57 = call i32 @exr_attr_list_add(ptr noundef nonnull %0, ptr noundef nonnull %36, ptr noundef %2, i32 noundef 15, i32 noundef 0, ptr noundef null, ptr noundef nonnull %5) #6
  %.not57 = icmp eq ptr %3, null
  br i1 %.not57, label %58, label %63

.thread:                                          ; preds = %42
  %.not5759 = icmp eq ptr %3, null
  br i1 %.not5759, label %58, label %.thread61

58:                                               ; preds = %.thread, %56
  %59 = call i32 @pthread_mutex_unlock(ptr noundef nonnull %7) #6
  %60 = getelementptr inbounds nuw i8, ptr %0, i64 72
  %61 = load ptr, ptr %60, align 8, !tbaa !23
  %62 = call i32 (ptr, i32, ptr, ...) %61(ptr noundef nonnull %0, i32 noundef 3, ptr noundef nonnull @.str.30, ptr noundef %2, ptr noundef nonnull @.str.69) #6
  br label %70

63:                                               ; preds = %56
  %64 = icmp eq i32 %57, 0
  br i1 %64, label %..thread61_crit_edge, label %68

..thread61_crit_edge:                             ; preds = %63
  %.pre = load ptr, ptr %5, align 8, !tbaa !30
  br label %.thread61

.thread61:                                        ; preds = %..thread61_crit_edge, %.thread
  %65 = phi ptr [ %.pre, %..thread61_crit_edge ], [ %43, %.thread ]
  %66 = getelementptr inbounds nuw i8, ptr %65, i64 24
  %67 = load ptr, ptr %66, align 8, !tbaa !35
  call void @llvm.memcpy.p0.p0.i64(ptr noundef nonnull align 1 dereferenceable(64) %67, ptr noundef nonnull align 1 dereferenceable(64) %3, i64 64, i1 false), !tbaa.struct !64
  br label %68

68:                                               ; preds = %.thread61, %63
  %.0466063 = phi i32 [ 0, %.thread61 ], [ %57, %63 ]
  %69 = call i32 @pthread_mutex_unlock(ptr noundef nonnull %7) #6
  br label %70

70:                                               ; preds = %4, %68, %58, %54, %46, %40, %25, %20, %13
  %.0 = phi i32 [ %17, %13 ], [ %24, %20 ], [ %29, %25 ], [ 15, %40 ], [ %.0466063, %68 ], [ %62, %58 ], [ %53, %46 ], [ %37, %54 ], [ 2, %4 ]
  call void @llvm.lifetime.end.p0(i64 8, ptr nonnull %5) #6
  ret i32 %.0
}